Certificate:
    Data:
        Version: 3 (0x2)
        Serial Number: 304 (0x130)
    Signature Algorithm: sha256WithRSAEncryption
        Issuer: C = US, O = U.S. Government, OU = FPKI, CN = Federal Common Policy CA
        Validity
            Not Before: Dec  1 16:45:27 2010 GMT
            Not After : Dec  1 16:45:27 2030 GMT
        Subject: C = US, O = U.S. Government, OU = FPKI, CN = Federal Common Policy CA
        Subject Public Key Info:
            Public Key Algorithm: rsaEncryption
                Public-Key: (2048 bit)
                Modulus:
                    00:d8:75:fb:35:16:34:5a:41:bf:5a:af:5c:30:04:
                    14:1c:ad:78:44:b5:ea:26:ea:75:61:c7:cd:36:79:
                    f8:7c:d8:bd:29:51:66:59:21:e3:79:ab:d4:78:be:
                    b0:2d:b0:a1:d5:b2:35:16:23:d0:cc:1e:be:0e:e8:
                    ab:dc:c3:c9:d6:12:d7:a7:72:68:18:31:b8:17:22:
                    b2:3e:7e:ba:08:6d:c6:fd:d1:58:2c:69:a0:03:f0:
                    2a:a3:f6:3f:21:25:3d:df:b7:32:c5:8e:27:b3:23:
                    a5:e0:52:b3:5d:96:e9:b0:b8:c5:c5:9f:bb:c5:a0:
                    6e:82:40:bb:c5:27:05:36:49:d6:26:27:69:0c:34:
                    8f:cf:27:7a:2a:0a:a3:41:5f:8d:1d:03:86:83:15:
                    e0:55:c1:c5:98:2c:9e:ec:1a:72:dc:48:c1:3e:f9:
                    84:d2:84:82:c1:1b:c3:74:36:b7:b9:c7:36:32:7a:
                    f8:32:b6:d0:36:ae:22:18:31:8c:50:73:21:9e:fe:
                    83:3b:30:88:24:e3:e9:c1:7e:de:ed:98:c7:1f:92:
                    10:8a:9f:5b:62:2f:9d:a4:bc:d5:85:6f:3a:fd:c9:
                    53:a7:20:4b:aa:db:20:ab:21:4e:1d:0d:4e:e6:98:
                    85:e5:ab:11:47:5d:9d:3f:c4:23:c0:e3:14:06:6e:
                    fe:9d
                Exponent: 65537 (0x10001)
        X509v3 extensions:
            X509v3 Basic Constraints: critical
                CA:TRUE
            Subject Information Access: 
                CA Repository - URI:http://http.fpki.gov/fcpca/caCertsIssuedByfcpca.p7c
                CA Repository - URI:ldap://ldap.fpki.gov/cn=Federal%20Common%20Policy%20CA,ou=FPKI,o=U.S.%20Government,c=US?cACertificate;binary,crossCertificatePair;binary

            X509v3 Key Usage: critical
                Certificate Sign, CRL Sign
            X509v3 Subject Key Identifier: 
                AD:0C:7A:75:5C:E5:F3:98:C4:79:98:0E:AC:28:FD:97:F4:E7:02:FC
    Signature Algorithm: sha256WithRSAEncryption
         8f:73:da:e1:7f:80:b1:87:f6:ec:2c:cf:d1:84:63:1e:f6:f1:
         88:b7:9a:f2:11:b5:ef:54:ad:8a:6e:18:37:28:ef:5c:1b:e4:
         ef:50:b7:6c:26:18:23:22:4d:1d:26:47:20:e9:09:9c:e2:70:
         62:71:ab:11:cf:91:89:e8:b3:f5:2a:a0:47:c0:14:cb:4e:42:
         c1:dd:0c:0e:1b:f0:87:5b:ec:e5:77:d7:aa:e0:54:d7:45:f4:
         85:3e:ec:b4:1d:de:7c:8a:7f:5b:4d:9c:96:8a:d0:a2:32:9f:
         da:6c:31:0c:f8:a4:ef:7e:73:e8:91:dc:08:7a:70:5a:a0:af:
         62:81:59:f8:00:74:a2:c8:dd:54:ca:41:56:47:bd:e9:c0:4f:
         ed:20:dd:e3:a5:09:df:ae:28:c2:fc:d1:c8:17:d8:12:c7:6f:
         de:2e:e9:bd:9a:91:f2:3c:5a:94:2e:91:22:80:89:a1:8c:58:
         cc:83:7a:26:19:75:02:a5:0e:7d:0a:26:73:51:ea:86:cb:07:
         a8:c8:fd:63:5a:35:9b:d2:af:bf:4f:31:48:c1:84:70:db:35:
         7b:9a:19:0f:e5:8f:f4:6a:0c:6f:33:d9:eb:1c:70:a2:0d:e3:
         b9:50:03:61:02:ff:4a:ec:92:a4:dc:2d:ee:2a:34:93:07:b7:
         2c:e7:18:8f
-----BEGIN CERTIFICATE-----
MIIEYDCCA0igAwIBAgICATAwDQYJKoZIhvcNAQELBQAwWTELMAkGA1UEBhMCVVMx
GDAWBgNVBAoTD1UuUy4gR292ZXJubWVudDENMAsGA1UECxMERlBLSTEhMB8GA1UE
AxMYRmVkZXJhbCBDb21tb24gUG9saWN5IENBMB4XDTEwMTIwMTE2NDUyN1oXDTMw
MTIwMTE2NDUyN1owWTELMAkGA1UEBhMCVVMxGDAWBgNVBAoTD1UuUy4gR292ZXJu
bWVudDENMAsGA1UECxMERlBLSTEhMB8GA1UEAxMYRmVkZXJhbCBDb21tb24gUG9s
aWN5IENBMIIBIjANBgkqhkiG9w0BAQEFAAOCAQ8AMIIBCgKCAQEA2HX7NRY0WkG/
Wq9cMAQUHK14RLXqJup1YcfNNnn4fNi9KVFmWSHjeavUeL6wLbCh1bI1FiPQzB6+
Duir3MPJ1hLXp3JoGDG4FyKyPn66CG3G/dFYLGmgA/Aqo/Y/ISU937cyxY4nsyOl
4FKzXZbpsLjFxZ+7xaBugkC7xScFNknWJidpDDSPzyd6KgqjQV+NHQOGgxXgVcHF
mCye7Bpy3EjBPvmE0oSCwRvDdDa3ucc2Mnr4MrbQNq4iGDGMUHMhnv6DOzCIJOPp
wX7e7ZjHH5IQip9bYi+dpLzVhW86/clTpyBLqtsgqyFOHQ1O5piF5asRR12dP8Qj
wOMUBm7+nQIDAQABo4IBMDCCASwwDwYDVR0TAQH/BAUwAwEB/zCB6QYIKwYBBQUH
AQsEgdwwgdkwPwYIKwYBBQUHMAWGM2h0dHA6Ly9odHRwLmZwa2kuZ292L2ZjcGNh
L2NhQ2VydHNJc3N1ZWRCeWZjcGNhLnA3YzCBlQYIKwYBBQUHMAWGgYhsZGFwOi8v
bGRhcC5mcGtpLmdvdi9jbj1GZWRlcmFsJTIwQ29tbW9uJTIwUG9saWN5JTIwQ0Es
b3U9RlBLSSxvPVUuUy4lMjBHb3Zlcm5tZW50LGM9VVM/Y0FDZXJ0aWZpY2F0ZTti
aW5hcnksY3Jvc3NDZXJ0aWZpY2F0ZVBhaXI7YmluYXJ5MA4GA1UdDwEB/wQEAwIB
BjAdBgNVHQ4EFgQUrQx6dVzl85jEeZgOrCj9l/TnAvwwDQYJKoZIhvcNAQELBQAD
ggEBAI9z2uF/gLGH9uwsz9GEYx728Yi3mvIRte9UrYpuGDco71wb5O9Qt2wmGCMi
TR0mRyDpCZzicGJxqxHPkYnos/UqoEfAFMtOQsHdDA4b8Idb7OV316rgVNdF9IU+
7LQd3nyKf1tNnJaK0KIyn9psMQz4pO9+c+iR3Ah6cFqgr2KBWfgAdKLI3VTKQVZH
venAT+0g3eOlCd+uKML80cgX2BLHb94u6b2akfI8WpQukSKAiaGMWMyDeiYZdQKl
Dn0KJnNR6obLB6jI/WNaNZvSr79PMUjBhHDbNXuaGQ/lj/RqDG8z2esccKIN47lQ
A2EC/0rskqTcLe4qNJMHtyznGI8=
-----END CERTIFICATE-----
